target datalayout = "e-m:e-p270:32:32-p271:32:32-p272:64:64-i64:64-i128:128-f80:128-n8:16:32:64-S128"
target triple = "x86_64-pc-linux-gnu"

%struct.H5HL_t = type { i64, i64, i64, i64, i8, ptr, ptr, i64, i64, i64, ptr, i64, i64, ptr }
%struct.H5C_cache_entry_t = type { ptr, i64, i64, ptr, i8, ptr, i8, i8, i8, i8, i32, i8, i8, i8, i8, i8, i32, ptr, i32, i32, i32, i32, i32, i8, i8, ptr, ptr, ptr, ptr, ptr, ptr, i8, i32, i8, i64, ptr, i64, i64, i32, i8, i32, i32, i8, ptr, ptr, ptr }
%struct.H5HL_dblk_t = type { %struct.H5C_cache_entry_t, ptr }

@H5HL_init_g = external global i8, align 1
@H5_libterm_g = external global i8, align 1
@.str.2 = private unnamed_addr constant [103 x i8] c"generated/home/dtcxzyw/WorkSpace/Projects/compilers/llvm-opt-benchmark/bench/hdf5/hdf5/src/H5HLcache.c\00", align 1
@H5E_HEAP_g = external global i64, align 8
@H5E_BADVALUE_g = external global i64, align 8
@__func__.H5HL__cache_datablock_notify = private unnamed_addr constant [29 x i8] c"H5HL__cache_datablock_notify\00", align 1
@H5E_CANTPIN_g = external global i64, align 8
@.str.20 = private unnamed_addr constant [32 x i8] c"unable to pin local heap prefix\00", align 1
@H5E_CANTUNPIN_g = external global i64, align 8
@.str.21 = private unnamed_addr constant [34 x i8] c"unable to unpin local heap prefix\00", align 1
@H5E_ARGS_g = external global i64, align 8
@.str.22 = private unnamed_addr constant [35 x i8] c"unknown action from metadata cache\00", align 1

; Function Attrs: nounwind uwtable
define internal i32 @H5HL__cache_datablock_notify(i32 noundef %0, ptr noundef %1) #0 {
  %3 = alloca i32, align 4
  %4 = alloca ptr, align 8
  %5 = alloca ptr, align 8
  %6 = alloca i32, align 4
  %7 = alloca i8, align 1
  store i32 %0, ptr %3, align 4, !tbaa !19
  store ptr %1, ptr %4, align 8, !tbaa !3
  call void @llvm.lifetime.start.p0(i64 8, ptr %5) #7
  %8 = load ptr, ptr %4, align 8, !tbaa !3
  store ptr %8, ptr %5, align 8, !tbaa !62
  call void @llvm.lifetime.start.p0(i64 4, ptr %6) #7
  store i32 0, ptr %6, align 4, !tbaa !19
  call void @llvm.lifetime.start.p0(i64 1, ptr %7) #7
  store i8 0, ptr %7, align 1, !tbaa !9
  %9 = load i8, ptr @H5HL_init_g, align 1, !tbaa !9, !range !11, !noundef !12
  %10 = trunc i8 %9 to i1
  br i1 %10, label %15, label %11

11:                                               ; preds = %2
  %12 = load i8, ptr @H5_libterm_g, align 1, !tbaa !9, !range !11, !noundef !12
  %13 = trunc i8 %12 to i1
  %14 = xor i1 %13, true
  br label %15

15:                                               ; preds = %11, %2
  %16 = phi i1 [ true, %2 ], [ %14, %11 ]
  %17 = xor i1 %16, true
  %18 = xor i1 %17, true
  %19 = zext i1 %18 to i32
  %20 = sext i32 %19 to i64
  %21 = call i64 @llvm.expect.i64(i64 %20, i64 1)
  %22 = icmp ne i64 %21, 0
  br i1 %22, label %23, label %103

23:                                               ; preds = %15
  %24 = load i32, ptr %3, align 4, !tbaa !19
  switch i32 %24, label %82 [
    i32 0, label %101
    i32 1, label %25
    i32 2, label %53
    i32 4, label %53
    i32 5, label %53
    i32 6, label %53
    i32 7, label %53
    i32 8, label %53
    i32 9, label %53
    i32 3, label %54
  ]

25:                                               ; preds = %23
  %26 = load ptr, ptr %5, align 8, !tbaa !62
  %27 = getelementptr inbounds nuw %struct.H5HL_dblk_t, ptr %26, i32 0, i32 1
  %28 = load ptr, ptr %27, align 8, !tbaa !63
  %29 = getelementptr inbounds nuw %struct.H5HL_t, ptr %28, i32 0, i32 6
  %30 = load ptr, ptr %29, align 8, !tbaa !65
  %31 = call i32 @H5AC_pin_protected_entry(ptr noundef %30)
  %32 = icmp eq i32 -1, %31
  br i1 %32, label %33, label %52

33:                                               ; preds = %25
  br label %34

34:                                               ; preds = %33
  br label %35

35:                                               ; preds = %34
  br label %36

36:                                               ; preds = %35
  %37 = load i64, ptr @H5E_HEAP_g, align 8, !tbaa !13
  %38 = load i64, ptr @H5E_CANTPIN_g, align 8, !tbaa !13
  %39 = call i32 (ptr, ptr, i32, i64, i64, ptr, ...) @H5E_printf_stack(ptr noundef @.str.2, ptr noundef @__func__.H5HL__cache_datablock_notify, i32 noundef 838, i64 noundef %37, i64 noundef %38, ptr noundef @.str.20)
  br label %40

40:                                               ; preds = %36
  br label %41

41:                                               ; preds = %40
  store i8 1, ptr %7, align 1, !tbaa !9
  %42 = load i8, ptr %7, align 1, !tbaa !9, !range !11, !noundef !12
  %43 = trunc i8 %42 to i1
  %44 = zext i1 %43 to i8
  store i8 %44, ptr %7, align 1, !tbaa !9
  br label %45

45:                                               ; preds = %41
  br label %46

46:                                               ; preds = %45
  br label %47

47:                                               ; preds = %46
  store i32 -1, ptr %6, align 4, !tbaa !19
  br label %102

48:                                               ; No predecessors!
  br label %49

49:                                               ; preds = %48
  br label %50

50:                                               ; preds = %49
  br label %51

51:                                               ; preds = %50
  br label %52

52:                                               ; preds = %51, %25
  br label %101

53:                                               ; preds = %23, %23, %23, %23, %23, %23, %23
  br label %101

54:                                               ; preds = %23
  %55 = load ptr, ptr %5, align 8, !tbaa !62
  %56 = getelementptr inbounds nuw %struct.H5HL_dblk_t, ptr %55, i32 0, i32 1
  %57 = load ptr, ptr %56, align 8, !tbaa !63
  %58 = getelementptr inbounds nuw %struct.H5HL_t, ptr %57, i32 0, i32 6
  %59 = load ptr, ptr %58, align 8, !tbaa !65
  %60 = call i32 @H5AC_unpin_entry(ptr noundef %59)
  %61 = icmp eq i32 -1, %60
  br i1 %61, label %62, label %81

62:                                               ; preds = %54
  br label %63

63:                                               ; preds = %62
  br label %64

64:                                               ; preds = %63
  br label %65

65:                                               ; preds = %64
  %66 = load i64, ptr @H5E_HEAP_g, align 8, !tbaa !13
  %67 = load i64, ptr @H5E_CANTUNPIN_g, align 8, !tbaa !13
  %68 = call i32 (ptr, ptr, i32, i64, i64, ptr, ...) @H5E_printf_stack(ptr noundef @.str.2, ptr noundef @__func__.H5HL__cache_datablock_notify, i32 noundef 858, i64 noundef %66, i64 noundef %67, ptr noundef @.str.21)
  br label %69

69:                                               ; preds = %65
  br label %70

70:                                               ; preds = %69
  store i8 1, ptr %7, align 1, !tbaa !9
  %71 = load i8, ptr %7, align 1, !tbaa !9, !range !11, !noundef !12
  %72 = trunc i8 %71 to i1
  %73 = zext i1 %72 to i8
  store i8 %73, ptr %7, align 1, !tbaa !9
  br label %74

74:                                               ; preds = %70
  br label %75

75:                                               ; preds = %74
  br label %76

76:                                               ; preds = %75
  store i32 -1, ptr %6, align 4, !tbaa !19
  br label %102

77:                                               ; No predecessors!
  br label %78

78:                                               ; preds = %77
  br label %79

79:                                               ; preds = %78
  br label %80

80:                                               ; preds = %79
  br label %81

81:                                               ; preds = %80, %54
  br label %101

82:                                               ; preds = %23
  br label %83

83:                                               ; preds = %82
  br label %84

84:                                               ; preds = %83
  br label %85

85:                                               ; preds = %84
  %86 = load i64, ptr @H5E_ARGS_g, align 8, !tbaa !13
  %87 = load i64, ptr @H5E_BADVALUE_g, align 8, !tbaa !13
  %88 = call i32 (ptr, ptr, i32, i64, i64, ptr, ...) @H5E_printf_stack(ptr noundef @.str.2, ptr noundef @__func__.H5HL__cache_datablock_notify, i32 noundef 862, i64 noundef %86, i64 noundef %87, ptr noundef @.str.22)
  br label %89

89:                                               ; preds = %85
  br label %90

90:                                               ; preds = %89
  store i8 1, ptr %7, align 1, !tbaa !9
  %91 = load i8, ptr %7, align 1, !tbaa !9, !range !11, !noundef !12
  %92 = trunc i8 %91 to i1
  %93 = zext i1 %92 to i8
  store i8 %93, ptr %7, align 1, !tbaa !9
  br label %94

94:                                               ; preds = %90
  br label %95

95:                                               ; preds = %94
  br label %96

96:                                               ; preds = %95
  store i32 -1, ptr %6, align 4, !tbaa !19
  br label %102

97:                                               ; No predecessors!
  br label %98

98:                                               ; preds = %97
  br label %99

99:                                               ; preds = %98
  br label %100

100:                                              ; preds = %99
  br label %101

101:                                              ; preds = %100, %81, %53, %52, %23
  br label %102

102:                                              ; preds = %101, %96, %76, %47
  br label %103

103:                                              ; preds = %102, %15
  %104 = load i32, ptr %6, align 4, !tbaa !19
  call void @llvm.lifetime.end.p0(i64 1, ptr %7) #7
  call void @llvm.lifetime.end.p0(i64 4, ptr %6) #7
  call void @llvm.lifetime.end.p0(i64 8, ptr %5) #7
  ret i32 %104
}