; Function Attrs: nounwind uwtable
define internal range(i32 -1, 1) i32 @H5HL__cache_datablock_notify(i32 noundef %0, ptr noundef readonly captures(none) %1) #1 {
  %3 = load i8, ptr @H5HL_init_g, align 1, !tbaa !3, !range !7, !noundef !8
  %4 = trunc nuw i8 %3 to i1
  %5 = load i8, ptr @H5_libterm_g, align 1, !range !7
  %6 = trunc nuw i8 %5 to i1
  %7 = xor i1 %6, true
  %8 = select i1 %4, i1 true, i1 %7
  br i1 %8, label %9, label %36, !prof !9

9:                                                ; preds = %2
  switch i32 %0, label %32 [
    i32 0, label %36
    i32 1, label %10
    i32 2, label %36
    i32 4, label %36
    i32 5, label %36
    i32 6, label %36
    i32 7, label %36
    i32 8, label %36
    i32 9, label %36
    i32 3, label %21
  ]

10:                                               ; preds = %9
  %11 = getelementptr inbounds nuw i8, ptr %1, i64 248
  %12 = load ptr, ptr %11, align 8, !tbaa !50
  %13 = getelementptr inbounds nuw i8, ptr %12, i64 48
  %14 = load ptr, ptr %13, align 8, !tbaa !52
  %15 = tail call i32 @H5AC_pin_protected_entry(ptr noundef %14) #9
  %16 = icmp eq i32 %15, -1
  br i1 %16, label %17, label %36

17:                                               ; preds = %10
  %18 = load i64, ptr @H5E_HEAP_g, align 8, !tbaa !10
  %19 = load i64, ptr @H5E_CANTPIN_g, align 8, !tbaa !10
  %20 = tail call i32 (ptr, ptr, i32, i64, i64, ptr, ...) @H5E_printf_stack(ptr noundef nonnull @.str.2, ptr noundef nonnull @__func__.H5HL__cache_datablock_notify, i32 noundef 838, i64 noundef %18, i64 noundef %19, ptr noundef nonnull @.str.20) #9
  br label %36

21:                                               ; preds = %9
  %22 = getelementptr inbounds nuw i8, ptr %1, i64 248
  %23 = load ptr, ptr %22, align 8, !tbaa !50
  %24 = getelementptr inbounds nuw i8, ptr %23, i64 48
  %25 = load ptr, ptr %24, align 8, !tbaa !52
  %26 = tail call i32 @H5AC_unpin_entry(ptr noundef %25) #9
  %27 = icmp eq i32 %26, -1
  br i1 %27, label %28, label %36

28:                                               ; preds = %21
  %29 = load i64, ptr @H5E_HEAP_g, align 8, !tbaa !10
  %30 = load i64, ptr @H5E_CANTUNPIN_g, align 8, !tbaa !10
  %31 = tail call i32 (ptr, ptr, i32, i64, i64, ptr, ...) @H5E_printf_stack(ptr noundef nonnull @.str.2, ptr noundef nonnull @__func__.H5HL__cache_datablock_notify, i32 noundef 858, i64 noundef %29, i64 noundef %30, ptr noundef nonnull @.str.21) #9
  br label %36

32:                                               ; preds = %9
  %33 = load i64, ptr @H5E_ARGS_g, align 8, !tbaa !10
  %34 = load i64, ptr @H5E_BADVALUE_g, align 8, !tbaa !10
  %35 = tail call i32 (ptr, ptr, i32, i64, i64, ptr, ...) @H5E_printf_stack(ptr noundef nonnull @.str.2, ptr noundef nonnull @__func__.H5HL__cache_datablock_notify, i32 noundef 862, i64 noundef %33, i64 noundef %34, ptr noundef nonnull @.str.22) #9
  br label %36

36:                                               ; preds = %17, %28, %32, %21, %9, %9, %9, %9, %9, %9, %9, %10, %9, %2
  %.0 = phi i32 [ -1, %32 ], [ -1, %28 ], [ 0, %21 ], [ -1, %17 ], [ 0, %10 ], [ 0, %9 ], [ 0, %9 ], [ 0, %9 ], [ 0, %9 ], [ 0, %9 ], [ 0, %9 ], [ 0, %9 ], [ 0, %9 ], [ 0, %2 ]
  ret i32 %.0
}